; Function Attrs: mustprogress nofree norecurse nosync nounwind willreturn memory(read, inaccessiblemem: none) uwtable
define hidden noundef i32 @_ZNK12param_descrs4sizeEv(ptr nocapture noundef nonnull readonly align 8 dereferenceable(8) %this) local_unnamed_addr #7 align 2 {
entry:
  %0 = load ptr, ptr %this, align 8
  %m_names.i = getelementptr inbounds i8, ptr %0, i64 24
  %1 = load ptr, ptr %m_names.i, align 8
  %cmp.i.i = icmp eq ptr %1, null
  br i1 %cmp.i.i, label %_ZNK12param_descrs3imp4sizeEv.exit, label %if.end.i.i

if.end.i.i:                                       ; preds = %entry
  %arrayidx.i.i = getelementptr inbounds i8, ptr %1, i64 -4
  %2 = load i32, ptr %arrayidx.i.i, align 4
  br label %_ZNK12param_descrs3imp4sizeEv.exit

_ZNK12param_descrs3imp4sizeEv.exit:               ; preds = %entry, %if.end.i.i
  %retval.0.i.i = phi i32 [ %2, %if.end.i.i ], [ 0, %entry ]
  ret i32 %retval.0.i.i
}